; Function Attrs: nounwind uwtable
define internal void @ExecGrant_Type_check(ptr readnone captures(none) %0, ptr noundef readonly captures(none) %1) #0 {
  %3 = getelementptr i8, ptr %1, i64 16
  %.val = load ptr, ptr %3, align 8
  %4 = getelementptr inbounds nuw i8, ptr %.val, i64 22
  %5 = load i8, ptr %4, align 2
  %6 = zext i8 %5 to i64
  %7 = getelementptr inbounds nuw i8, ptr %.val, i64 %6
  %8 = getelementptr inbounds nuw i8, ptr %7, i64 92
  %9 = load i32, ptr %8, align 4
  %.not = icmp eq i32 %9, 0
  br i1 %.not, label %19, label %10

10:                                               ; preds = %2
  %11 = getelementptr inbounds nuw i8, ptr %7, i64 88
  %12 = load i32, ptr %11, align 4
  %13 = icmp eq i32 %12, 6179
  br i1 %13, label %14, label %19

14:                                               ; preds = %10
  %15 = tail call zeroext i1 @errstart_cold(i32 noundef 21, ptr noundef null) #10
  tail call void @llvm.assume(i1 %15)
  %16 = tail call i32 @errcode(i32 noundef 16910080) #9
  %17 = tail call i32 (ptr, ...) @errmsg(ptr noundef nonnull @.str.128) #9
  %18 = tail call i32 (ptr, ...) @errhint(ptr noundef nonnull @.str.129) #9
  tail call void @errfinish(ptr noundef nonnull @.str.1, i32 noundef 2382, ptr noundef nonnull @__func__.ExecGrant_Type_check) #9
  unreachable

19:                                               ; preds = %10, %2
  %20 = getelementptr inbounds nuw i8, ptr %7, i64 79
  %21 = load i8, ptr %20, align 1
  %22 = icmp eq i8 %21, 109
  br i1 %22, label %23, label %28

23:                                               ; preds = %19
  %24 = tail call zeroext i1 @errstart_cold(i32 noundef 21, ptr noundef null) #10
  tail call void @llvm.assume(i1 %24)
  %25 = tail call i32 @errcode(i32 noundef 16910080) #9
  %26 = tail call i32 (ptr, ...) @errmsg(ptr noundef nonnull @.str.130) #9
  %27 = tail call i32 (ptr, ...) @errhint(ptr noundef nonnull @.str.131) #9
  tail call void @errfinish(ptr noundef nonnull @.str.1, i32 noundef 2387, ptr noundef nonnull @__func__.ExecGrant_Type_check) #9
  unreachable

28:                                               ; preds = %19
  ret void
}